target datalayout = "e-m:e-p270:32:32-p271:32:32-p272:64:64-i64:64-i128:128-f80:128-n8:16:32:64-S128"
target triple = "x86_64-pc-linux-gnu"

%struct.SimpleEcontextStackEntry = type { ptr, i32, ptr }

@simple_econtext_stack = internal global ptr null, align 8

; Function Attrs: nounwind uwtable
define hidden void @plpgsql_subxact_cb(i32 noundef %0, i32 noundef %1, i32 noundef %2, ptr noundef %3) #0 {
  %5 = alloca i32, align 4
  %6 = alloca i32, align 4
  %7 = alloca i32, align 4
  %8 = alloca ptr, align 8
  %9 = alloca ptr, align 8
  store i32 %0, ptr %5, align 4
  store i32 %1, ptr %6, align 4
  store i32 %2, ptr %7, align 4
  store ptr %3, ptr %8, align 8
  %10 = load i32, ptr %5, align 4
  %11 = icmp eq i32 %10, 1
  br i1 %11, label %15, label %12

12:                                               ; preds = %4
  %13 = load i32, ptr %5, align 4
  %14 = icmp eq i32 %13, 2
  br i1 %14, label %15, label %39

15:                                               ; preds = %12, %4
  br label %16

16:                                               ; preds = %27, %15
  %17 = load ptr, ptr @simple_econtext_stack, align 8
  %18 = icmp ne ptr %17, null
  br i1 %18, label %19, label %25

19:                                               ; preds = %16
  %20 = load ptr, ptr @simple_econtext_stack, align 8
  %21 = getelementptr inbounds nuw %struct.SimpleEcontextStackEntry, ptr %20, i32 0, i32 1
  %22 = load i32, ptr %21, align 8
  %23 = load i32, ptr %6, align 4
  %24 = icmp eq i32 %22, %23
  br label %25

25:                                               ; preds = %19, %16
  %26 = phi i1 [ false, %16 ], [ %24, %19 ]
  br i1 %26, label %27, label %38

27:                                               ; preds = %25
  call void @llvm.lifetime.start.p0(i64 8, ptr %9) #12
  %28 = load ptr, ptr @simple_econtext_stack, align 8
  %29 = getelementptr inbounds nuw %struct.SimpleEcontextStackEntry, ptr %28, i32 0, i32 0
  %30 = load ptr, ptr %29, align 8
  %31 = load i32, ptr %5, align 4
  %32 = icmp eq i32 %31, 1
  call void @FreeExprContext(ptr noundef %30, i1 noundef zeroext %32)
  %33 = load ptr, ptr @simple_econtext_stack, align 8
  %34 = getelementptr inbounds nuw %struct.SimpleEcontextStackEntry, ptr %33, i32 0, i32 2
  %35 = load ptr, ptr %34, align 8
  store ptr %35, ptr %9, align 8
  %36 = load ptr, ptr @simple_econtext_stack, align 8
  call void @pfree(ptr noundef %36)
  %37 = load ptr, ptr %9, align 8
  store ptr %37, ptr @simple_econtext_stack, align 8
  call void @llvm.lifetime.end.p0(i64 8, ptr %9) #12
  br label %16, !llvm.loop !9

38:                                               ; preds = %25
  br label %39

39:                                               ; preds = %38, %12
  ret void
}