; Function Attrs: nounwind uwtable
define hidden void @plpgsql_subxact_cb(i32 noundef %0, i32 noundef %1, i32 noundef %2, ptr noundef readnone captures(none) %3) local_unnamed_addr #0 {
  %5 = icmp eq i32 %0, 1
  %6 = add i32 %0, -1
  %or.cond = icmp ult i32 %6, 2
  %7 = load ptr, ptr @simple_econtext_stack, align 8
  %8 = icmp ne ptr %7, null
  %or.cond3 = select i1 %or.cond, i1 %8, i1 false
  br i1 %or.cond3, label %.preheader, label %.critedge

.preheader:                                       ; preds = %4, %13
  %9 = phi ptr [ %17, %13 ], [ %7, %4 ]
  %10 = getelementptr inbounds nuw i8, ptr %9, i64 8
  %11 = load i32, ptr %10, align 8
  %12 = icmp eq i32 %11, %1
  br i1 %12, label %13, label %.critedge

13:                                               ; preds = %.preheader
  %14 = load ptr, ptr %9, align 8
  tail call void @FreeExprContext(ptr noundef %14, i1 noundef zeroext %5) #12
  %15 = load ptr, ptr @simple_econtext_stack, align 8
  %16 = getelementptr inbounds nuw i8, ptr %15, i64 16
  %17 = load ptr, ptr %16, align 8
  tail call void @pfree(ptr noundef %15) #12
  store ptr %17, ptr @simple_econtext_stack, align 8
  %.old2.not = icmp eq ptr %17, null
  br i1 %.old2.not, label %.critedge, label %.preheader

.critedge:                                        ; preds = %.preheader, %13, %4
  ret void
}